; Function Attrs: mustprogress uwtable
define void @_Z8dd_bcastPK12gmx_domdec_tiPv(ptr nocapture noundef readonly %0, i32 noundef %1, ptr noundef %2) local_unnamed_addr #0 {
  %4 = load i32, ptr %0, align 8
  %5 = icmp sgt i32 %4, 1
  br i1 %5, label %6, label %13

6:                                                ; preds = %3
  %7 = load ptr, ptr @TMPI_BYTE, align 8
  %8 = getelementptr inbounds i8, ptr %0, i64 44
  %9 = load i32, ptr %8, align 4
  %10 = getelementptr inbounds i8, ptr %0, i64 8
  %11 = load ptr, ptr %10, align 8
  %12 = tail call noundef i32 @_Z10tMPI_BcastPviP14tmpi_datatype_iP10tmpi_comm_(ptr noundef %2, i32 noundef %1, ptr noundef %7, i32 noundef %9, ptr noundef %11)
  br label %13

13:                                               ; preds = %6, %3
  ret void
}